Certificate:
    Data:
        Version: 3 (0x2)
        Serial Number: 4143 (0x102f)
    Signature Algorithm: sha256WithRSAEncryption
        Issuer: C=US, ST=Missouri, O=iShare Medical, CN=iShare Medical API Intermediate CA/emailAddress=webmaster@isharemedical.com
        Validity
            Not Before: Mar 30 19:28:11 2021 GMT
            Not After : Apr  9 19:28:11 2022 GMT
        Subject: C=US, ST=Missouri, O=iShare Medical, CN=api@preventscripts.isharemedicalrecords.com/emailAddress=webmaster@isharemedical.com
        Subject Public Key Info:
            Public Key Algorithm: rsaEncryption
                Public-Key: (2048 bit)
                Modulus:
                    00:be:be:77:5b:11:ff:11:10:3d:8b:cb:fc:83:22:
                    5f:7d:15:98:5b:31:f6:1d:1b:3b:9f:17:4f:ac:ca:
                    ad:13:e1:94:8d:d7:26:a4:04:b0:fb:e5:72:57:32:
                    8a:df:76:0c:df:75:cc:92:00:d3:dc:d0:49:73:b2:
                    8d:1c:09:38:80:f0:5f:8e:00:9e:ef:57:51:fa:22:
                    38:5e:0a:51:b3:e0:c2:53:08:a7:1f:5c:52:6d:d4:
                    48:a0:62:58:3f:c0:5f:b8:b2:37:12:7e:79:16:a0:
                    47:3d:8c:34:16:dc:94:85:d8:4e:f4:c1:ea:fa:c6:
                    a0:95:df:30:e8:65:17:01:10:c8:46:f6:22:77:55:
                    32:f5:24:b0:ba:31:09:b0:06:75:9b:fa:e0:03:72:
                    99:b8:cb:1a:36:26:ed:60:0e:17:83:3c:0a:3b:41:
                    d2:d3:00:50:25:d7:f4:6c:2e:29:6a:dc:e9:6c:cc:
                    90:db:c1:21:eb:08:d9:51:d1:7b:62:bf:eb:b5:77:
                    c0:be:aa:7b:17:30:cf:af:9a:ca:de:f5:86:2d:3f:
                    33:4b:ac:29:e2:92:dc:75:32:8b:03:5f:50:a7:3c:
                    7f:62:75:8f:5a:1f:5e:62:e5:9b:6a:9d:f2:42:a2:
                    1e:be:11:4c:89:38:d3:86:d8:f3:7d:d5:5a:23:73:
                    0a:b1
                Exponent: 65537 (0x10001)
        X509v3 extensions:
            X509v3 Basic Constraints: 
                CA:FALSE
            Netscape Cert Type: 
                SSL Client, S/MIME
            Netscape Comment: 
                OpenSSL Generated Client Certificate
            X509v3 Subject Key Identifier: 
                4F:5B:EB:69:DC:0A:CC:FE:3A:AF:AC:BE:FA:9B:9A:16:BE:A1:1F:CF
            X509v3 Authority Key Identifier: 
                keyid:3B:33:56:76:2E:43:D2:36:F8:A2:1F:F0:6C:54:0B:8E:16:1C:34:4C

            X509v3 Key Usage: critical
                Digital Signature, Non Repudiation, Key Encipherment
            X509v3 Extended Key Usage: 
                TLS Web Client Authentication, E-mail Protection
    Signature Algorithm: sha256WithRSAEncryption
         5c:91:e5:1e:ac:0c:5d:71:90:e7:1f:2c:69:4d:e5:7b:df:85:
         5c:e5:45:bd:c0:e9:f7:0a:c8:53:5c:2e:f3:0f:14:92:43:c3:
         6a:db:24:6c:7f:ba:36:6f:a8:2a:83:f9:75:e8:fe:fa:f4:d8:
         38:be:28:fd:ff:4f:f5:99:fc:35:59:34:cf:1f:90:18:9c:61:
         3f:0c:74:98:ab:a4:04:5c:be:25:af:d9:ef:67:3f:01:28:58:
         39:44:09:8c:45:07:0f:2e:a1:80:9d:80:69:b4:e0:a2:c1:2f:
         27:c5:f7:d4:9c:c2:25:c5:f5:47:4c:08:3d:e6:6e:41:21:27:
         23:97:97:c1:5e:b1:47:ba:0e:9d:29:3a:fe:83:95:17:63:89:
         0e:16:9b:b2:63:2a:7e:10:ed:f5:f1:04:f4:ac:c8:f8:aa:18:
         10:9c:5f:60:25:14:85:5c:3d:22:36:b4:fe:ae:81:9c:d2:32:
         d0:11:f1:ee:d8:98:37:75:19:e3:2a:83:ee:e2:4b:a9:ff:23:
         52:06:80:e8:f6:1b:60:54:5f:8c:b2:65:fd:a4:6a:70:35:0b:
         dc:cb:3e:4c:be:30:c4:46:22:2f:3f:f1:b7:a4:6f:54:c4:4f:
         65:ad:8e:23:41:1d:a2:a0:54:89:c5:c1:4e:f7:96:39:12:40:
         32:89:5b:0e:3b:a3:19:4e:83:50:ea:01:6d:53:b3:0c:a4:e5:
         4a:2c:76:2c:b3:ec:69:0f:b3:92:37:51:b7:74:7a:08:c7:d7:
         1f:ef:a3:34:84:7f:80:11:08:b5:6c:eb:6c:4c:8e:89:e8:a6:
         f1:85:98:a3:3d:ed:70:f7:5b:6e:fb:b3:6e:df:6c:c5:94:0d:
         2f:58:c7:ab:6d:61:0a:70:da:d3:7d:29:36:2f:61:e4:ed:a0:
         04:f9:34:c0:7c:42:b9:c3:62:25:9b:75:b2:af:26:7b:83:ff:
         0f:c8:7a:ad:de:00:76:73:1b:d5:b2:37:81:bb:f0:15:eb:bb:
         19:7a:4d:ec:ce:de:2c:6a:a7:c6:04:d2:9e:46:7f:53:b3:ff:
         c5:ee:11:00:a1:26:7b:b1:de:de:87:f8:15:64:94:0c:f1:66:
         f1:b9:6f:93:59:bf:97:3f:75:11:9c:ec:e7:36:17:d6:0d:54:
         8e:c2:94:df:01:7e:80:e7:a7:07:3e:10:08:a8:35:a7:58:67:
         f0:8b:17:e1:7c:3d:6f:ef:38:7d:98:b8:a0:ed:05:f2:67:d5:
         bb:09:2a:bd:c3:c4:c9:b1:55:9a:39:f9:31:36:b7:74:4a:4c:
         6f:2b:77:81:1f:42:e6:05:d1:5a:21:f2:1d:6c:ec:5f:7a:ee:
         2b:cd:e9:54:36:bc:85:fa
-----BEGIN CERTIFICATE-----
MIIFcTCCA1mgAwIBAgICEC8wDQYJKoZIhvcNAQELBQAwgZIxCzAJBgNVBAYTAlVT
MREwDwYDVQQIDAhNaXNzb3VyaTEXMBUGA1UECgwOaVNoYXJlIE1lZGljYWwxKzAp
BgNVBAMMImlTaGFyZSBNZWRpY2FsIEFQSSBJbnRlcm1lZGlhdGUgQ0ExKjAoBgkq
hkiG9w0BCQEWG3dlYm1hc3RlckBpc2hhcmVtZWRpY2FsLmNvbTAeFw0yMTAzMzAx
OTI4MTFaFw0yMjA0MDkxOTI4MTFaMIGbMQswCQYDVQQGEwJVUzERMA8GA1UECAwI
TWlzc291cmkxFzAVBgNVBAoMDmlTaGFyZSBNZWRpY2FsMTQwMgYDVQQDDCthcGlA
cHJldmVudHNjcmlwdHMuaXNoYXJlbWVkaWNhbHJlY29yZHMuY29tMSowKAYJKoZI
hvcNAQkBFht3ZWJtYXN0ZXJAaXNoYXJlbWVkaWNhbC5jb20wggEiMA0GCSqGSIb3
DQEBAQUAA4IBDwAwggEKAoIBAQC+vndbEf8RED2Ly/yDIl99FZhbMfYdGzufF0+s
yq0T4ZSN1yakBLD75XJXMorfdgzfdcySANPc0Elzso0cCTiA8F+OAJ7vV1H6Ijhe
ClGz4MJTCKcfXFJt1EigYlg/wF+4sjcSfnkWoEc9jDQW3JSF2E70wer6xqCV3zDo
ZRcBEMhG9iJ3VTL1JLC6MQmwBnWb+uADcpm4yxo2Ju1gDheDPAo7QdLTAFAl1/Rs
Lilq3OlszJDbwSHrCNlR0Xtiv+u1d8C+qnsXMM+vmsre9YYtPzNLrCniktx1MosD
X1CnPH9idY9aH15i5ZtqnfJCoh6+EUyJONOG2PN91VojcwqxAgMBAAGjgcUwgcIw
CQYDVR0TBAIwADARBglghkgBhvhCAQEEBAMCBaAwMwYJYIZIAYb4QgENBCYWJE9w
ZW5TU0wgR2VuZXJhdGVkIENsaWVudCBDZXJ0aWZpY2F0ZTAdBgNVHQ4EFgQUT1vr
adwKzP46r6y++puaFr6hH88wHwYDVR0jBBgwFoAUOzNWdi5D0jb4oh/wbFQLjhYc
NEwwDgYDVR0PAQH/BAQDAgXgMB0GA1UdJQQWMBQGCCsGAQUFBwMCBggrBgEFBQcD
BDANBgkqhkiG9w0BAQsFAAOCAgEAXJHlHqwMXXGQ5x8saU3le9+FXOVFvcDp9wrI
U1wu8w8UkkPDatskbH+6Nm+oKoP5dej++vTYOL4o/f9P9Zn8NVk0zx+QGJxhPwx0
mKukBFy+Ja/Z72c/AShYOUQJjEUHDy6hgJ2AabTgosEvJ8X31JzCJcX1R0wIPeZu
QSEnI5eXwV6xR7oOnSk6/oOVF2OJDhabsmMqfhDt9fEE9KzI+KoYEJxfYCUUhVw9
Ija0/q6BnNIy0BHx7tiYN3UZ4yqD7uJLqf8jUgaA6PYbYFRfjLJl/aRqcDUL3Ms+
TL4wxEYiLz/xt6RvVMRPZa2OI0EdoqBUicXBTveWORJAMolbDjujGU6DUOoBbVOz
DKTlSix2LLPsaQ+zkjdRt3R6CMfXH++jNIR/gBEItWzrbEyOieim8YWYoz3tcPdb
bvuzbt9sxZQNL1jHq21hCnDa030pNi9h5O2gBPk0wHxCucNiJZt1sq8me4P/D8h6
rd4AdnMb1bI3gbvwFeu7GXpN7M7eLGqnxgTSnkZ/U7P/xe4RAKEme7He3of4FWSU
DPFm8blvk1m/lz91EZzs5zYX1g1UjsKU3wF+gOenBz4QCKg1p1hn8IsX4Xw9b+84
fZi4oO0F8mfVuwkqvcPEybFVmjn5MTa3dEpMbyt3gR9C5gXRWiHyHWzsX3ruK83p
VDa8hfo=
-----END CERTIFICATE-----
