Certificate:
    Data:
        Version: 3 (0x2)
        Serial Number: 4155 (0x103b)
    Signature Algorithm: sha256WithRSAEncryption
        Issuer: C=US, ST=Missouri, O=iShare Medical, CN=iShare Medical API Intermediate CA/emailAddress=webmaster@isharemedical.com
        Validity
            Not Before: Apr 13 17:37:20 2022 GMT
            Not After : Apr 23 17:37:20 2023 GMT
        Subject: C=US, ST=Missouri, L=Kansas City, O=iShare Medical, CN=api@preventscripts.isharemedicalrecords.com/emailAddress=webmaster@isharemedical.com
        Subject Public Key Info:
            Public Key Algorithm: rsaEncryption
                Public-Key: (2048 bit)
                Modulus:
                    00:a5:28:c2:8e:21:9d:e8:c5:d8:5e:bb:6e:4d:8c:
                    0b:1f:1b:c2:6e:18:74:e3:6a:66:1a:cb:2c:24:83:
                    42:25:21:ac:26:4c:0f:f0:41:1b:4a:8f:62:93:59:
                    11:95:f0:0f:6d:81:d5:1c:95:15:d5:91:0d:5c:4c:
                    e6:53:ab:29:3a:cc:17:b8:d4:28:c0:0f:12:25:b5:
                    2f:e5:bc:ce:cc:13:b7:f5:c3:6e:39:97:57:13:f9:
                    63:22:ca:8d:14:f9:50:40:6f:05:be:ad:85:49:e0:
                    40:53:b4:39:88:75:2d:11:26:f6:17:cb:c6:ea:4f:
                    28:59:f1:6e:0b:46:04:63:9c:bd:bd:24:d3:f1:9d:
                    ff:c6:49:39:99:35:bb:bb:3d:67:91:47:43:18:c7:
                    9d:43:9d:a9:ef:2d:42:da:53:c5:f0:6e:d0:71:07:
                    52:f1:c1:b5:80:13:c8:84:cb:32:a2:16:bc:3f:e3:
                    74:6c:69:5e:dc:0d:97:9b:a3:78:cb:cc:ef:59:40:
                    34:97:87:3b:49:36:e7:e1:a7:6e:46:f8:ab:69:1d:
                    84:2c:ac:cd:0f:c9:d9:64:48:a4:b3:a8:d7:e5:b4:
                    c1:c6:54:bd:b4:d9:c2:47:91:13:36:47:33:a9:56:
                    5d:74:79:a9:cf:02:1d:4d:3b:fe:db:b6:17:c3:b8:
                    89:d1
                Exponent: 65537 (0x10001)
        X509v3 extensions:
            X509v3 Basic Constraints: 
                CA:FALSE
            Netscape Cert Type: 
                SSL Client, S/MIME
            Netscape Comment: 
                OpenSSL Generated Client Certificate
            X509v3 Subject Key Identifier: 
                57:7D:91:29:44:8F:AB:25:71:1D:1F:E0:CB:28:F0:96:59:49:54:23
            X509v3 Authority Key Identifier: 
                keyid:3B:33:56:76:2E:43:D2:36:F8:A2:1F:F0:6C:54:0B:8E:16:1C:34:4C

            X509v3 Key Usage: critical
                Digital Signature, Non Repudiation, Key Encipherment
            X509v3 Extended Key Usage: 
                TLS Web Client Authentication, E-mail Protection
    Signature Algorithm: sha256WithRSAEncryption
         74:99:76:15:d0:0d:2a:74:79:79:85:2b:5a:b1:35:01:91:ad:
         42:58:18:62:21:b3:00:b0:b6:70:2d:fe:d0:69:e2:80:61:fb:
         d7:0b:f0:4f:cc:04:e3:72:dd:fb:63:04:65:ce:57:07:94:bb:
         21:84:c3:a9:28:26:2c:6c:73:da:5a:a9:03:0b:89:32:f2:6c:
         26:5d:6a:99:60:68:40:84:5b:69:2c:bf:75:c1:be:c2:d8:ad:
         2f:3c:56:9e:11:45:8b:4c:33:97:21:fa:81:89:fe:6c:6e:c5:
         af:ee:cb:a3:7e:c0:10:76:6f:95:a6:d8:67:d7:7a:77:b0:f3:
         f9:80:82:2a:5f:74:02:5f:ae:7a:18:e5:d4:dc:75:7a:e6:e8:
         d7:34:78:2f:cd:f4:81:90:55:f3:a4:1c:a8:9d:61:d1:3f:e0:
         a7:70:2b:ff:c1:5e:4d:d0:92:52:98:61:be:a1:b6:35:3e:f2:
         fe:bd:19:c6:4a:14:3e:af:bb:1f:e5:31:db:25:79:07:61:08:
         00:17:05:63:d6:8a:1a:8f:a6:48:76:49:4b:73:b8:a4:75:5c:
         89:63:7d:c3:a1:ff:f0:b1:da:a2:02:04:f3:5e:c2:ef:56:d3:
         d8:77:ea:00:fd:3b:2a:20:34:4a:e3:c2:e2:93:00:ee:95:39:
         66:10:61:35:82:7e:23:62:30:f5:f7:49:8f:a9:25:ec:28:88:
         02:9e:3b:b2:e9:4d:be:be:dd:43:d2:c2:84:6d:78:6e:f2:44:
         46:64:21:b9:42:8e:c9:6c:3f:d1:30:f7:86:ca:4f:43:b5:04:
         22:10:70:8c:15:51:10:ac:77:a9:d1:37:b3:9a:5a:32:4d:d1:
         d6:e3:4b:7f:ec:5a:79:86:e7:79:97:f9:ef:16:62:81:af:d2:
         6d:ab:ea:20:31:89:c6:0f:61:81:b6:4c:a1:06:e7:1f:32:00:
         65:63:f0:c6:15:4a:d8:dd:7f:a3:29:09:ce:73:24:5b:5b:e6:
         d2:cd:09:75:f9:3b:c7:af:07:06:25:9b:da:7b:19:49:e4:32:
         34:19:01:e5:f8:7b:05:cb:f5:a7:14:45:58:20:94:13:0e:a0:
         eb:30:65:8b:d7:07:b4:ad:4a:df:a3:b3:81:d8:46:d9:09:f6:
         82:dc:3f:c8:03:aa:08:14:64:8a:0a:0a:5f:a0:c1:3c:70:a6:
         2c:e7:0f:9b:1b:69:b7:04:17:95:b1:51:7d:05:ac:74:36:f0:
         1f:e2:c1:b6:f2:7b:c3:21:08:03:4b:d0:f8:e3:7c:05:25:f1:
         f2:81:9d:3c:2c:a2:3c:97:92:eb:fb:20:3d:5f:55:19:b7:b0:
         f6:f9:bb:67:d2:95:bf:ac
-----BEGIN CERTIFICATE-----
MIIFhzCCA2+gAwIBAgICEDswDQYJKoZIhvcNAQELBQAwgZIxCzAJBgNVBAYTAlVT
MREwDwYDVQQIDAhNaXNzb3VyaTEXMBUGA1UECgwOaVNoYXJlIE1lZGljYWwxKzAp
BgNVBAMMImlTaGFyZSBNZWRpY2FsIEFQSSBJbnRlcm1lZGlhdGUgQ0ExKjAoBgkq
hkiG9w0BCQEWG3dlYm1hc3RlckBpc2hhcmVtZWRpY2FsLmNvbTAeFw0yMjA0MTMx
NzM3MjBaFw0yMzA0MjMxNzM3MjBaMIGxMQswCQYDVQQGEwJVUzERMA8GA1UECAwI
TWlzc291cmkxFDASBgNVBAcMC0thbnNhcyBDaXR5MRcwFQYDVQQKDA5pU2hhcmUg
TWVkaWNhbDE0MDIGA1UEAwwrYXBpQHByZXZlbnRzY3JpcHRzLmlzaGFyZW1lZGlj
YWxyZWNvcmRzLmNvbTEqMCgGCSqGSIb3DQEJARYbd2VibWFzdGVyQGlzaGFyZW1l
ZGljYWwuY29tMIIBIjANBgkqhkiG9w0BAQEFAAOCAQ8AMIIBCgKCAQEApSjCjiGd
6MXYXrtuTYwLHxvCbhh042pmGsssJINCJSGsJkwP8EEbSo9ik1kRlfAPbYHVHJUV
1ZENXEzmU6spOswXuNQowA8SJbUv5bzOzBO39cNuOZdXE/ljIsqNFPlQQG8Fvq2F
SeBAU7Q5iHUtESb2F8vG6k8oWfFuC0YEY5y9vSTT8Z3/xkk5mTW7uz1nkUdDGMed
Q52p7y1C2lPF8G7QcQdS8cG1gBPIhMsyoha8P+N0bGle3A2Xm6N4y8zvWUA0l4c7
STbn4aduRviraR2ELKzND8nZZEiks6jX5bTBxlS9tNnCR5ETNkczqVZddHmpzwId
TTv+27YXw7iJ0QIDAQABo4HFMIHCMAkGA1UdEwQCMAAwEQYJYIZIAYb4QgEBBAQD
AgWgMDMGCWCGSAGG+EIBDQQmFiRPcGVuU1NMIEdlbmVyYXRlZCBDbGllbnQgQ2Vy
dGlmaWNhdGUwHQYDVR0OBBYEFFd9kSlEj6slcR0f4Mso8JZZSVQjMB8GA1UdIwQY
MBaAFDszVnYuQ9I2+KIf8GxUC44WHDRMMA4GA1UdDwEB/wQEAwIF4DAdBgNVHSUE
FjAUBggrBgEFBQcDAgYIKwYBBQUHAwQwDQYJKoZIhvcNAQELBQADggIBAHSZdhXQ
DSp0eXmFK1qxNQGRrUJYGGIhswCwtnAt/tBp4oBh+9cL8E/MBONy3ftjBGXOVweU
uyGEw6koJixsc9paqQMLiTLybCZdaplgaECEW2ksv3XBvsLYrS88Vp4RRYtMM5ch
+oGJ/mxuxa/uy6N+wBB2b5Wm2GfXenew8/mAgipfdAJfrnoY5dTcdXrm6Nc0eC/N
9IGQVfOkHKidYdE/4KdwK//BXk3QklKYYb6htjU+8v69GcZKFD6vux/lMdsleQdh
CAAXBWPWihqPpkh2SUtzuKR1XIljfcOh//Cx2qICBPNewu9W09h36gD9OyogNErj
wuKTAO6VOWYQYTWCfiNiMPX3SY+pJewoiAKeO7LpTb6+3UPSwoRteG7yREZkIblC
jslsP9Ew94bKT0O1BCIQcIwVURCsd6nRN7OaWjJN0dbjS3/sWnmG53mX+e8WYoGv
0m2r6iAxicYPYYG2TKEG5x8yAGVj8MYVStjdf6MpCc5zJFtb5tLNCXX5O8evBwYl
m9p7GUnkMjQZAeX4ewXL9acURVgglBMOoOswZYvXB7StSt+js4HYRtkJ9oLcP8gD
qggUZIoKCl+gwTxwpiznD5sbabcEF5WxUX0FrHQ28B/iwbbye8MhCANL0PjjfAUl
8fKBnTwsojyXkuv7ID1fVRm3sPb5u2fSlb+s
-----END CERTIFICATE-----
