Certificate:
    Data:
        Version: 3 (0x2)
        Serial Number: 4108 (0x100c)
    Signature Algorithm: sha256WithRSAEncryption
        Issuer: C=US, ST=Missouri, O=iShare Medical, CN=Test API Intermediate Certificate/emailAddress=webmaster@isharemedical.com
        Validity
            Not Before: May 21 20:44:13 2021 GMT
            Not After : May 31 20:44:13 2022 GMT
        Subject: C=US, ST=Missouri, O=iShare Medical, CN=preventscripts@test.isharemedicalrecords.com
        Subject Public Key Info:
            Public Key Algorithm: rsaEncryption
                Public-Key: (2048 bit)
                Modulus:
                    00:aa:b7:4a:77:bc:2d:d0:c3:9c:03:58:5f:ba:7c:
                    c5:8e:c2:c7:ee:e4:6b:96:d7:24:b8:3e:c2:70:9b:
                    9d:cf:da:f3:71:14:46:d4:aa:01:d2:3d:b1:43:ad:
                    dc:c8:68:ba:78:11:f9:c1:91:23:1a:b4:98:fc:52:
                    bb:5c:77:a1:f6:5a:f4:ee:48:1a:e1:3e:8f:2b:48:
                    95:8b:83:c2:9c:d4:05:f2:83:22:84:45:7c:7b:c4:
                    4d:39:da:39:52:42:d6:b6:86:85:71:db:81:42:5b:
                    01:ad:a2:4b:72:e0:90:3a:d8:6a:a9:0a:5b:5d:c9:
                    30:10:f5:90:0b:c3:d8:ac:7f:d0:df:82:61:2b:de:
                    74:03:32:0a:22:8f:2a:4d:21:99:b3:27:1c:8d:21:
                    4d:14:fc:5a:1d:cf:8f:54:ae:20:bf:57:88:cc:64:
                    6e:01:51:f9:fa:b7:dc:64:11:52:63:27:9f:ec:6d:
                    c6:1c:55:fc:39:a0:56:ad:30:db:8f:54:65:85:f1:
                    a2:75:bc:71:56:87:0d:8b:2d:40:35:3d:fa:72:97:
                    f2:26:a1:15:c5:86:e1:ae:03:13:55:54:7d:1e:0a:
                    0b:10:ae:86:db:ba:eb:dd:06:60:95:3f:de:fc:f3:
                    7c:fd:ef:46:3b:b6:d1:41:ca:14:4f:c9:03:e2:38:
                    7a:9b
                Exponent: 65537 (0x10001)
        X509v3 extensions:
            X509v3 Basic Constraints: 
                CA:FALSE
            Netscape Cert Type: 
                SSL Client, S/MIME
            Netscape Comment: 
                OpenSSL Generated Client Certificate
            X509v3 Subject Key Identifier: 
                F0:03:DF:62:A0:19:85:17:4F:8A:01:5C:A1:6D:75:8E:92:B0:63:82
            X509v3 Authority Key Identifier: 
                keyid:48:2D:04:AB:24:FE:B2:AE:51:57:D3:D9:6F:C4:4B:97:93:9B:47:2E

            X509v3 Key Usage: critical
                Digital Signature, Non Repudiation, Key Encipherment
            X509v3 Extended Key Usage: 
                TLS Web Client Authentication, E-mail Protection
    Signature Algorithm: sha256WithRSAEncryption
         83:21:98:71:76:95:e7:7c:0e:93:7d:9d:b7:85:92:c4:40:e4:
         e3:f9:12:7c:e2:d7:95:76:9f:59:a3:96:d0:6f:93:3a:bd:9b:
         ab:a0:94:9a:3e:47:96:31:12:29:43:a1:5c:bf:18:c9:0d:ec:
         54:85:11:d7:61:b8:af:62:46:c5:b0:79:83:98:cf:30:57:72:
         62:69:6a:ed:04:67:ca:11:2f:82:8d:6c:35:48:8d:b0:fd:af:
         f8:3d:94:6f:46:34:c7:c4:06:b4:9f:aa:64:71:5c:c9:aa:4e:
         4a:a6:7c:05:e4:20:67:62:c5:b4:8b:77:b9:e3:ee:98:6d:51:
         80:84:8f:9b:52:d3:06:c8:56:94:77:a5:cb:24:92:93:1e:b9:
         3f:22:c8:45:17:ff:82:34:0b:3b:38:6e:67:eb:72:12:c7:a4:
         1a:1f:1b:67:b6:bd:48:87:be:ad:9d:e3:96:20:f8:fe:f6:4c:
         76:27:06:44:b8:d4:30:61:25:ac:61:ef:f5:cd:c4:72:cd:7a:
         b7:93:d7:f5:ef:d5:04:17:8e:38:87:da:c9:1a:53:05:81:92:
         c0:34:d3:39:30:83:9e:fe:a5:f4:e8:16:70:2b:15:83:27:86:
         9d:b3:4b:b9:dc:7c:6f:88:b4:b8:d9:8d:dc:cf:ef:5a:4d:34:
         1e:28:e3:75:e6:c2:3b:00:fd:1e:90:97:c0:a8:5e:14:4a:20:
         76:fe:9b:40:df:73:d0:d2:8d:69:af:be:cb:57:83:e0:3e:0c:
         6e:ad:c7:a6:b6:38:50:ca:91:9b:57:3b:a2:6c:37:31:c9:a5:
         f0:39:7a:74:55:70:10:50:19:fe:98:42:6e:47:8a:6f:9d:82:
         89:8f:d1:a2:75:0d:66:06:b3:c7:d6:0a:51:a8:24:99:2d:70:
         5a:a7:f2:3f:e2:a9:d0:0e:00:fa:77:f0:5f:ec:90:8b:79:e7:
         ce:e8:4a:25:cd:9a:f6:78:b7:57:d7:09:44:d1:f2:84:48:b4:
         dd:08:60:53:d0:a1:30:56:27:db:c6:05:5d:fa:a9:4e:26:0c:
         8d:ad:e6:87:f4:e2:3c:a3:e4:0a:7d:af:e7:a6:f7:53:48:4e:
         02:06:ce:92:1a:f8:b5:ae:89:f5:61:a3:0e:8b:28:d4:d2:2c:
         19:08:6e:2d:d1:b4:74:14:2f:d0:08:84:2c:ed:b7:10:09:b6:
         d3:61:17:d4:fc:11:64:f2:0c:d4:fb:61:d5:4e:8a:95:fe:66:
         21:5e:18:ea:18:ae:6d:4f:d2:ca:20:85:6a:6f:fb:8c:e4:1c:
         73:2d:32:f4:56:bf:4e:80:c4:2a:74:11:c0:19:56:3c:ba:f2:
         8d:7f:4c:d6:8d:ae:42:2f
-----BEGIN CERTIFICATE-----
MIIFRDCCAyygAwIBAgICEAwwDQYJKoZIhvcNAQELBQAwgZExCzAJBgNVBAYTAlVT
MREwDwYDVQQIDAhNaXNzb3VyaTEXMBUGA1UECgwOaVNoYXJlIE1lZGljYWwxKjAo
BgNVBAMMIVRlc3QgQVBJIEludGVybWVkaWF0ZSBDZXJ0aWZpY2F0ZTEqMCgGCSqG
SIb3DQEJARYbd2VibWFzdGVyQGlzaGFyZW1lZGljYWwuY29tMB4XDTIxMDUyMTIw
NDQxM1oXDTIyMDUzMTIwNDQxM1owcDELMAkGA1UEBhMCVVMxETAPBgNVBAgMCE1p
c3NvdXJpMRcwFQYDVQQKDA5pU2hhcmUgTWVkaWNhbDE1MDMGA1UEAwwscHJldmVu
dHNjcmlwdHNAdGVzdC5pc2hhcmVtZWRpY2FscmVjb3Jkcy5jb20wggEiMA0GCSqG
SIb3DQEBAQUAA4IBDwAwggEKAoIBAQCqt0p3vC3Qw5wDWF+6fMWOwsfu5GuW1yS4
PsJwm53P2vNxFEbUqgHSPbFDrdzIaLp4EfnBkSMatJj8Urtcd6H2WvTuSBrhPo8r
SJWLg8Kc1AXygyKERXx7xE052jlSQta2hoVx24FCWwGtokty4JA62GqpCltdyTAQ
9ZALw9isf9DfgmEr3nQDMgoijypNIZmzJxyNIU0U/Fodz49UriC/V4jMZG4BUfn6
t9xkEVJjJ5/sbcYcVfw5oFatMNuPVGWF8aJ1vHFWhw2LLUA1Pfpyl/ImoRXFhuGu
AxNVVH0eCgsQrobbuuvdBmCVP97883z970Y7ttFByhRPyQPiOHqbAgMBAAGjgcUw
gcIwCQYDVR0TBAIwADARBglghkgBhvhCAQEEBAMCBaAwMwYJYIZIAYb4QgENBCYW
JE9wZW5TU0wgR2VuZXJhdGVkIENsaWVudCBDZXJ0aWZpY2F0ZTAdBgNVHQ4EFgQU
8APfYqAZhRdPigFcoW11jpKwY4IwHwYDVR0jBBgwFoAUSC0EqyT+sq5RV9PZb8RL
l5ObRy4wDgYDVR0PAQH/BAQDAgXgMB0GA1UdJQQWMBQGCCsGAQUFBwMCBggrBgEF
BQcDBDANBgkqhkiG9w0BAQsFAAOCAgEAgyGYcXaV53wOk32dt4WSxEDk4/kSfOLX
lXafWaOW0G+TOr2bq6CUmj5HljESKUOhXL8YyQ3sVIUR12G4r2JGxbB5g5jPMFdy
Ymlq7QRnyhEvgo1sNUiNsP2v+D2Ub0Y0x8QGtJ+qZHFcyapOSqZ8BeQgZ2LFtIt3
uePumG1RgISPm1LTBshWlHelyySSkx65PyLIRRf/gjQLOzhuZ+tyEsekGh8bZ7a9
SIe+rZ3jliD4/vZMdicGRLjUMGElrGHv9c3Ecs16t5PX9e/VBBeOOIfayRpTBYGS
wDTTOTCDnv6l9OgWcCsVgyeGnbNLudx8b4i0uNmN3M/vWk00HijjdebCOwD9HpCX
wKheFEogdv6bQN9z0NKNaa++y1eD4D4Mbq3HprY4UMqRm1c7omw3Mcml8Dl6dFVw
EFAZ/phCbkeKb52CiY/RonUNZgazx9YKUagkmS1wWqfyP+Kp0A4A+nfwX+yQi3nn
zuhKJc2a9ni3V9cJRNHyhEi03QhgU9ChMFYn28YFXfqpTiYMja3mh/TiPKPkCn2v
56b3U0hOAgbOkhr4ta6J9WGjDoso1NIsGQhuLdG0dBQv0AiELO23EAm202EX1PwR
ZPIM1Pth1U6Klf5mIV4Y6hiubU/SyiCFam/7jOQccy0y9Fa/ToDEKnQRwBlWPLry
jX9M1o2uQi8=
-----END CERTIFICATE-----
